; Function Attrs: mustprogress uwtable
define void @_ZNK15neuralnetworkCV10denseLayer7computeERKSt6vectorIdSaIdEERS3_(ptr noundef nonnull align 8 dereferenceable(128) %0, ptr noundef nonnull readonly align 8 captures(none) dereferenceable(24) %1, ptr noundef nonnull readonly align 8 captures(none) dereferenceable(24) %2) local_unnamed_addr #16 align 2 {
  %4 = alloca double, align 8
  %5 = getelementptr inbounds nuw i8, ptr %0, i64 8
  %6 = load i64, ptr %5, align 8, !tbaa !99
  %.not = icmp eq i64 %6, 0
  br i1 %.not, label %._crit_edge24, label %.lr.ph23

.lr.ph23:                                         ; preds = %3
  %7 = getelementptr inbounds nuw i8, ptr %0, i64 80
  %8 = getelementptr inbounds nuw i8, ptr %0, i64 104
  %9 = getelementptr inbounds nuw i8, ptr %0, i64 32
  %10 = getelementptr inbounds nuw i8, ptr %0, i64 16
  %11 = getelementptr inbounds nuw i8, ptr %0, i64 40
  %.pre = load ptr, ptr %2, align 8, !tbaa !41
  br label %12

._crit_edge24:                                    ; preds = %_ZNKSt8functionIFddEEclEd.exit, %3
  ret void

12:                                               ; preds = %.lr.ph23, %_ZNKSt8functionIFddEEclEd.exit
  %13 = phi ptr [ %.pre, %.lr.ph23 ], [ %29, %_ZNKSt8functionIFddEEclEd.exit ]
  %.01921 = phi i64 [ 0, %.lr.ph23 ], [ %31, %_ZNKSt8functionIFddEEclEd.exit ]
  %14 = getelementptr inbounds nuw double, ptr %13, i64 %.01921
  store double 0.000000e+00, ptr %14, align 8, !tbaa !21
  %15 = load i64, ptr %0, align 8, !tbaa !91
  %.not25 = icmp eq i64 %15, 0
  br i1 %.not25, label %._crit_edge, label %.lr.ph

.lr.ph:                                           ; preds = %12
  %16 = load ptr, ptr %1, align 8, !tbaa !41
  %17 = load ptr, ptr %7, align 8, !tbaa !45
  %18 = getelementptr inbounds nuw %"class.std::vector.37", ptr %17, i64 %.01921
  %19 = load ptr, ptr %18, align 8, !tbaa !41
  br label %34

._crit_edge:                                      ; preds = %34, %12
  %20 = phi double [ 0.000000e+00, %12 ], [ %40, %34 ]
  %21 = load ptr, ptr %8, align 8, !tbaa !41
  %22 = getelementptr inbounds nuw double, ptr %21, i64 %.01921
  %23 = load double, ptr %22, align 8, !tbaa !21
  %24 = fadd double %23, %20
  store double %24, ptr %14, align 8, !tbaa !21
  call void @llvm.lifetime.start.p0(i64 8, ptr nonnull %4)
  store double %24, ptr %4, align 8, !tbaa !21
  %25 = load ptr, ptr %9, align 8, !tbaa !4
  %.not.i.i = icmp eq ptr %25, null
  br i1 %.not.i.i, label %26, label %_ZNKSt8functionIFddEEclEd.exit

26:                                               ; preds = %._crit_edge
  call void @_ZSt25__throw_bad_function_callv() #35
  unreachable

_ZNKSt8functionIFddEEclEd.exit:                   ; preds = %._crit_edge
  %27 = load ptr, ptr %11, align 8, !tbaa !26
  %28 = call noundef double %27(ptr noundef nonnull align 8 dereferenceable(32) %10, ptr noundef nonnull align 8 dereferenceable(8) %4)
  call void @llvm.lifetime.end.p0(i64 8, ptr nonnull %4)
  %29 = load ptr, ptr %2, align 8, !tbaa !41
  %30 = getelementptr inbounds nuw double, ptr %29, i64 %.01921
  store double %28, ptr %30, align 8, !tbaa !21
  %31 = add nuw i64 %.01921, 1
  %32 = load i64, ptr %5, align 8, !tbaa !99
  %33 = icmp ult i64 %31, %32
  br i1 %33, label %12, label %._crit_edge24, !llvm.loop !112

34:                                               ; preds = %.lr.ph, %34
  %35 = phi double [ 0.000000e+00, %.lr.ph ], [ %40, %34 ]
  %.020 = phi i64 [ 0, %.lr.ph ], [ %41, %34 ]
  %36 = getelementptr inbounds nuw double, ptr %16, i64 %.020
  %37 = load double, ptr %36, align 8, !tbaa !21
  %38 = getelementptr inbounds nuw double, ptr %19, i64 %.020
  %39 = load double, ptr %38, align 8, !tbaa !21
  %40 = call double @llvm.fmuladd.f64(double %37, double %39, double %35)
  store double %40, ptr %14, align 8, !tbaa !21
  %41 = add nuw i64 %.020, 1
  %exitcond.not = icmp eq i64 %41, %15
  br i1 %exitcond.not, label %._crit_edge, label %34, !llvm.loop !113
}